target datalayout = "e-m:e-p270:32:32-p271:32:32-p272:64:64-i64:64-i128:128-f80:128-n8:16:32:64-S128"
target triple = "x86_64-pc-linux-gnu"

%struct.test_fixture = type { ptr, i32, ptr, ptr }
%struct.ossl_cmp_ctx_st = type { ptr, ptr, ptr, i32, ptr, ptr, ptr, ptr, ptr, i32, ptr, ptr, i32, i32, i32, i32, i64, ptr, ptr, i32, i32, ptr, ptr, ptr, ptr, ptr, i32, i32, i32, ptr, ptr, ptr, ptr, ptr, i64, ptr, i32, i32, ptr, ptr, ptr, ptr, ptr, ptr, ptr, ptr, i32, i32, ptr, ptr, i32, ptr, ptr, i32, ptr, ptr, i32, i32, ptr, ptr, i32, i32, ptr, ptr, i32, ptr, i32, ptr, i32, ptr, ptr, ptr, ptr, ptr, ptr }

@.str.1 = private unnamed_addr constant [26 x i8] c"test_HDR_get0_senderNonce\00", align 1
@.str.13 = private unnamed_addr constant [31 x i8] c"../openssl/test/cmp_hdr_test.c\00", align 1
@.str.18 = private unnamed_addr constant [2 x i8] c"1\00", align 1
@.str.21 = private unnamed_addr constant [7 x i8] c"sender\00", align 1
@.str.22 = private unnamed_addr constant [3 x i8] c"CN\00", align 1
@.str.23 = private unnamed_addr constant [21 x i8] c"A common sender name\00", align 1
@.str.24 = private unnamed_addr constant [56 x i8] c"OSSL_CMP_CTX_set1_subjectName(fixture->cmp_ctx, sender)\00", align 1
@.str.25 = private unnamed_addr constant [50 x i8] c"ossl_cmp_hdr_init(fixture->cmp_ctx, fixture->hdr)\00", align 1
@.str.26 = private unnamed_addr constant [57 x i8] c"ASN1_OCTET_STRING_cmp(fixture->cmp_ctx->senderNonce, sn)\00", align 1
@.str.27 = private unnamed_addr constant [2 x i8] c"0\00", align 1

; Function Attrs: nounwind uwtable
define internal void @tear_down(ptr noundef %0) #0 {
  %2 = alloca ptr, align 8
  store ptr %0, ptr %2, align 8, !tbaa !4
  %3 = load ptr, ptr %2, align 8, !tbaa !4
  %4 = getelementptr inbounds nuw %struct.test_fixture, ptr %3, i32 0, i32 3
  %5 = load ptr, ptr %4, align 8, !tbaa !21
  call void @OSSL_CMP_PKIHEADER_free(ptr noundef %5)
  %6 = load ptr, ptr %2, align 8, !tbaa !4
  %7 = getelementptr inbounds nuw %struct.test_fixture, ptr %6, i32 0, i32 2
  %8 = load ptr, ptr %7, align 8, !tbaa !16
  call void @OSSL_CMP_CTX_free(ptr noundef %8)
  %9 = load ptr, ptr %2, align 8, !tbaa !4
  call void @CRYPTO_free(ptr noundef %9, ptr noundef @.str.13, i32 noundef 28)
  ret void
}

; Function Attrs: nounwind uwtable
define internal i32 @execute_HDR_get0_senderNonce_test(ptr noundef %0) #0 {
  %2 = alloca ptr, align 8
  %3 = alloca i32, align 4
  %4 = alloca ptr, align 8
  %5 = alloca ptr, align 8
  store ptr %0, ptr %2, align 8, !tbaa !4
  call void @llvm.lifetime.start.p0(i64 4, ptr %3) #7
  store i32 0, ptr %3, align 4, !tbaa !9
  call void @llvm.lifetime.start.p0(i64 8, ptr %4) #7
  %6 = call ptr @X509_NAME_new()
  store ptr %6, ptr %4, align 8, !tbaa !17
  call void @llvm.lifetime.start.p0(i64 8, ptr %5) #7
  %7 = load ptr, ptr %4, align 8, !tbaa !17
  %8 = call i32 @test_ptr(ptr noundef @.str.13, i32 noundef 78, ptr noundef @.str.21, ptr noundef %7)
  %9 = icmp ne i32 %8, 0
  br i1 %9, label %11, label %10

10:                                               ; preds = %1
  br label %49

11:                                               ; preds = %1
  %12 = load ptr, ptr %4, align 8, !tbaa !17
  %13 = call i32 @X509_NAME_add_entry_by_txt(ptr noundef %12, ptr noundef @.str.22, i32 noundef 4097, ptr noundef @.str.23, i32 noundef -1, i32 noundef -1, i32 noundef 0)
  %14 = load ptr, ptr %2, align 8, !tbaa !4
  %15 = getelementptr inbounds nuw %struct.test_fixture, ptr %14, i32 0, i32 2
  %16 = load ptr, ptr %15, align 8, !tbaa !16
  %17 = load ptr, ptr %4, align 8, !tbaa !17
  %18 = call i32 @OSSL_CMP_CTX_set1_subjectName(ptr noundef %16, ptr noundef %17)
  %19 = call i32 @test_int_eq(ptr noundef @.str.13, i32 noundef 83, ptr noundef @.str.24, ptr noundef @.str.18, i32 noundef %18, i32 noundef 1)
  %20 = icmp ne i32 %19, 0
  br i1 %20, label %22, label %21

21:                                               ; preds = %11
  br label %49

22:                                               ; preds = %11
  %23 = load ptr, ptr %2, align 8, !tbaa !4
  %24 = getelementptr inbounds nuw %struct.test_fixture, ptr %23, i32 0, i32 2
  %25 = load ptr, ptr %24, align 8, !tbaa !16
  %26 = load ptr, ptr %2, align 8, !tbaa !4
  %27 = getelementptr inbounds nuw %struct.test_fixture, ptr %26, i32 0, i32 3
  %28 = load ptr, ptr %27, align 8, !tbaa !21
  %29 = call i32 @ossl_cmp_hdr_init(ptr noundef %25, ptr noundef %28)
  %30 = call i32 @test_int_eq(ptr noundef @.str.13, i32 noundef 86, ptr noundef @.str.25, ptr noundef @.str.18, i32 noundef %29, i32 noundef 1)
  %31 = icmp ne i32 %30, 0
  br i1 %31, label %33, label %32

32:                                               ; preds = %22
  br label %49

33:                                               ; preds = %22
  %34 = load ptr, ptr %2, align 8, !tbaa !4
  %35 = getelementptr inbounds nuw %struct.test_fixture, ptr %34, i32 0, i32 3
  %36 = load ptr, ptr %35, align 8, !tbaa !21
  %37 = call ptr @ossl_cmp_hdr_get0_senderNonce(ptr noundef %36)
  store ptr %37, ptr %5, align 8, !tbaa !22
  %38 = load ptr, ptr %2, align 8, !tbaa !4
  %39 = getelementptr inbounds nuw %struct.test_fixture, ptr %38, i32 0, i32 2
  %40 = load ptr, ptr %39, align 8, !tbaa !16
  %41 = getelementptr inbounds nuw %struct.ossl_cmp_ctx_st, ptr %40, i32 0, i32 41
  %42 = load ptr, ptr %41, align 8, !tbaa !24
  %43 = load ptr, ptr %5, align 8, !tbaa !22
  %44 = call i32 @ASN1_OCTET_STRING_cmp(ptr noundef %42, ptr noundef %43)
  %45 = call i32 @test_int_eq(ptr noundef @.str.13, i32 noundef 90, ptr noundef @.str.26, ptr noundef @.str.27, i32 noundef %44, i32 noundef 0)
  %46 = icmp ne i32 %45, 0
  br i1 %46, label %48, label %47

47:                                               ; preds = %33
  br label %49

48:                                               ; preds = %33
  store i32 1, ptr %3, align 4, !tbaa !9
  br label %49

49:                                               ; preds = %48, %47, %32, %21, %10
  %50 = load ptr, ptr %4, align 8, !tbaa !17
  call void @X509_NAME_free(ptr noundef %50)
  %51 = load i32, ptr %3, align 4, !tbaa !9
  call void @llvm.lifetime.end.p0(i64 8, ptr %5) #7
  call void @llvm.lifetime.end.p0(i64 8, ptr %4) #7
  call void @llvm.lifetime.end.p0(i64 4, ptr %3) #7
  ret i32 %51
}

; Function Attrs: nounwind uwtable
define internal i32 @test_HDR_get0_senderNonce() #0 {
  %1 = alloca i32, align 4
  %2 = alloca ptr, align 8
  %3 = alloca i32, align 4
  %4 = alloca i32, align 4
  call void @llvm.lifetime.start.p0(i64 8, ptr %2) #7
  %5 = call ptr @set_up(ptr noundef @.str.1)
  store ptr %5, ptr %2, align 8, !tbaa !4
  call void @llvm.lifetime.start.p0(i64 4, ptr %3) #7
  store i32 0, ptr %3, align 4, !tbaa !9
  %6 = load ptr, ptr %2, align 8, !tbaa !4
  %7 = icmp eq ptr %6, null
  br i1 %7, label %8, label %9

8:                                                ; preds = %0
  store i32 0, ptr %1, align 4
  store i32 1, ptr %4, align 4
  br label %20

9:                                                ; preds = %0
  %10 = load ptr, ptr %2, align 8, !tbaa !4
  %11 = getelementptr inbounds nuw %struct.test_fixture, ptr %10, i32 0, i32 1
  store i32 1, ptr %11, align 8, !tbaa !11
  %12 = load ptr, ptr %2, align 8, !tbaa !4
  %13 = icmp ne ptr %12, null
  br i1 %13, label %14, label %18

14:                                               ; preds = %9
  %15 = load ptr, ptr %2, align 8, !tbaa !4
  %16 = call i32 @execute_HDR_get0_senderNonce_test(ptr noundef %15)
  store i32 %16, ptr %3, align 4, !tbaa !9
  %17 = load ptr, ptr %2, align 8, !tbaa !4
  call void @tear_down(ptr noundef %17)
  br label %18

18:                                               ; preds = %14, %9
  %19 = load i32, ptr %3, align 4, !tbaa !9
  store i32 %19, ptr %1, align 4
  store i32 1, ptr %4, align 4
  br label %20

20:                                               ; preds = %18, %8
  call void @llvm.lifetime.end.p0(i64 4, ptr %3) #7
  call void @llvm.lifetime.end.p0(i64 8, ptr %2) #7
  %21 = load i32, ptr %1, align 4
  ret i32 %21
}