; Function Attrs: nounwind uwtable
define internal range(i32 0, 2) i32 @test_HDR_get0_senderNonce() #1 {
  %1 = tail call fastcc ptr @set_up(ptr noundef nonnull @.str.1)
  %2 = icmp eq ptr %1, null
  br i1 %2, label %31, label %3

3:                                                ; preds = %0
  %4 = getelementptr inbounds nuw i8, ptr %1, i64 8
  store i32 1, ptr %4, align 8, !tbaa !4
  %5 = tail call ptr @X509_NAME_new() #8
  %6 = tail call i32 @test_ptr(ptr noundef nonnull @.str.13, i32 noundef 78, ptr noundef nonnull @.str.21, ptr noundef %5) #8
  %.not.i = icmp eq i32 %6, 0
  br i1 %.not.i, label %execute_HDR_get0_senderNonce_test.exit, label %7

7:                                                ; preds = %3
  %8 = tail call i32 @X509_NAME_add_entry_by_txt(ptr noundef %5, ptr noundef nonnull @.str.22, i32 noundef 4097, ptr noundef nonnull @.str.23, i32 noundef -1, i32 noundef -1, i32 noundef 0) #8
  %9 = getelementptr inbounds nuw i8, ptr %1, i64 16
  %10 = load ptr, ptr %9, align 8, !tbaa !14
  %11 = tail call i32 @OSSL_CMP_CTX_set1_subjectName(ptr noundef %10, ptr noundef %5) #8
  %12 = tail call i32 @test_int_eq(ptr noundef nonnull @.str.13, i32 noundef 83, ptr noundef nonnull @.str.24, ptr noundef nonnull @.str.18, i32 noundef %11, i32 noundef 1) #8
  %.not10.i = icmp eq i32 %12, 0
  br i1 %.not10.i, label %execute_HDR_get0_senderNonce_test.exit, label %13

13:                                               ; preds = %7
  %14 = load ptr, ptr %9, align 8, !tbaa !14
  %15 = getelementptr inbounds nuw i8, ptr %1, i64 24
  %16 = load ptr, ptr %15, align 8, !tbaa !13
  %17 = tail call i32 @ossl_cmp_hdr_init(ptr noundef %14, ptr noundef %16) #8
  %18 = tail call i32 @test_int_eq(ptr noundef nonnull @.str.13, i32 noundef 86, ptr noundef nonnull @.str.25, ptr noundef nonnull @.str.18, i32 noundef %17, i32 noundef 1) #8
  %.not11.i = icmp eq i32 %18, 0
  br i1 %.not11.i, label %execute_HDR_get0_senderNonce_test.exit, label %19

19:                                               ; preds = %13
  %20 = load ptr, ptr %15, align 8, !tbaa !13
  %21 = tail call ptr @ossl_cmp_hdr_get0_senderNonce(ptr noundef %20) #8
  %22 = load ptr, ptr %9, align 8, !tbaa !14
  %23 = getelementptr inbounds nuw i8, ptr %22, i64 288
  %24 = load ptr, ptr %23, align 8, !tbaa !15
  %25 = tail call i32 @ASN1_OCTET_STRING_cmp(ptr noundef %24, ptr noundef %21) #8
  %26 = tail call i32 @test_int_eq(ptr noundef nonnull @.str.13, i32 noundef 90, ptr noundef nonnull @.str.26, ptr noundef nonnull @.str.27, i32 noundef %25, i32 noundef 0) #8
  %.not12.i = icmp ne i32 %26, 0
  %spec.select.i = zext i1 %.not12.i to i32
  br label %execute_HDR_get0_senderNonce_test.exit

execute_HDR_get0_senderNonce_test.exit:           ; preds = %3, %7, %13, %19
  %.0.i = phi i32 [ 0, %13 ], [ 0, %7 ], [ 0, %3 ], [ %spec.select.i, %19 ]
  tail call void @X509_NAME_free(ptr noundef %5) #8
  %27 = getelementptr inbounds nuw i8, ptr %1, i64 24
  %28 = load ptr, ptr %27, align 8, !tbaa !13
  tail call void @OSSL_CMP_PKIHEADER_free(ptr noundef %28) #8
  %29 = getelementptr inbounds nuw i8, ptr %1, i64 16
  %30 = load ptr, ptr %29, align 8, !tbaa !14
  tail call void @OSSL_CMP_CTX_free(ptr noundef %30) #8
  tail call void @CRYPTO_free(ptr noundef nonnull %1, ptr noundef nonnull @.str.13, i32 noundef 28) #8
  br label %31

31:                                               ; preds = %0, %execute_HDR_get0_senderNonce_test.exit
  %.06 = phi i32 [ %.0.i, %execute_HDR_get0_senderNonce_test.exit ], [ 0, %0 ]
  ret i32 %.06
}